target datalayout = "e-m:e-p270:32:32-p271:32:32-p272:64:64-i64:64-i128:128-f80:128-n8:16:32:64-S128"
target triple = "x86_64-pc-linux-gnu"

%struct.AVFormatContext = type { ptr, ptr, ptr, ptr, ptr, i32, i32, ptr, i32, ptr, i32, ptr, ptr, i64, i64, i64, i32, i32, i32, i64, i64, ptr, i32, i32, ptr, i32, i32, i32, i32, ptr, i64, i32, i32, %struct.AVIOInterruptCB, i32, i32, i32, i32, i64, i32, i32, i32, i32, i32, i32, i32, i32, i32, i32, i32, i32, i64, i32, i32, i32, i32, i32, ptr, ptr, ptr, ptr, i32, ptr, ptr, ptr, ptr, i32, ptr, ptr, i64, ptr, ptr, ptr, i64 }
%struct.AVIOInterruptCB = type { ptr, ptr }
%struct.SWFDecContext = type { i32, i32, ptr, ptr, ptr, %struct.z_stream_s }
%struct.z_stream_s = type { ptr, i32, i64, ptr, i32, i64, ptr, ptr, ptr, ptr, ptr, i32, i64, i64 }

; Function Attrs: nounwind uwtable
define internal i32 @zlib_refill(ptr noundef %0, ptr noundef %1, i32 noundef %2) #0 {
  %4 = alloca i32, align 4
  %5 = alloca ptr, align 8
  %6 = alloca ptr, align 8
  %7 = alloca i32, align 4
  %8 = alloca ptr, align 8
  %9 = alloca ptr, align 8
  %10 = alloca ptr, align 8
  %11 = alloca i32, align 4
  %12 = alloca i32, align 4
  %13 = alloca i32, align 4
  store ptr %0, ptr %5, align 8, !tbaa !107
  store ptr %1, ptr %6, align 8, !tbaa !90
  store i32 %2, ptr %7, align 4, !tbaa !15
  call void @llvm.lifetime.start.p0(i64 8, ptr %8) #10
  %14 = load ptr, ptr %5, align 8, !tbaa !107
  store ptr %14, ptr %8, align 8, !tbaa !16
  call void @llvm.lifetime.start.p0(i64 8, ptr %9) #10
  %15 = load ptr, ptr %8, align 8, !tbaa !16
  %16 = getelementptr inbounds nuw %struct.AVFormatContext, ptr %15, i32 0, i32 3
  %17 = load ptr, ptr %16, align 8, !tbaa !18
  store ptr %17, ptr %9, align 8, !tbaa !33
  call void @llvm.lifetime.start.p0(i64 8, ptr %10) #10
  %18 = load ptr, ptr %9, align 8, !tbaa !33
  %19 = getelementptr inbounds nuw %struct.SWFDecContext, ptr %18, i32 0, i32 5
  store ptr %19, ptr %10, align 8, !tbaa !108
  call void @llvm.lifetime.start.p0(i64 4, ptr %11) #10
  br label %20

20:                                               ; preds = %72, %3
  %21 = load ptr, ptr %10, align 8, !tbaa !108
  %22 = getelementptr inbounds nuw %struct.z_stream_s, ptr %21, i32 0, i32 1
  %23 = load i32, ptr %22, align 8, !tbaa !110
  %24 = icmp ne i32 %23, 0
  br i1 %24, label %49, label %25

25:                                               ; preds = %20
  call void @llvm.lifetime.start.p0(i64 4, ptr %12) #10
  %26 = load ptr, ptr %8, align 8, !tbaa !16
  %27 = getelementptr inbounds nuw %struct.AVFormatContext, ptr %26, i32 0, i32 4
  %28 = load ptr, ptr %27, align 8, !tbaa !35
  %29 = load ptr, ptr %9, align 8, !tbaa !33
  %30 = getelementptr inbounds nuw %struct.SWFDecContext, ptr %29, i32 0, i32 3
  %31 = load ptr, ptr %30, align 8, !tbaa !37
  %32 = call i32 @avio_read(ptr noundef %28, ptr noundef %31, i32 noundef 4096)
  store i32 %32, ptr %12, align 4, !tbaa !15
  %33 = load i32, ptr %12, align 4, !tbaa !15
  %34 = icmp slt i32 %33, 0
  br i1 %34, label %35, label %37

35:                                               ; preds = %25
  %36 = load i32, ptr %12, align 4, !tbaa !15
  store i32 %36, ptr %4, align 4
  store i32 1, ptr %13, align 4
  br label %46

37:                                               ; preds = %25
  %38 = load ptr, ptr %9, align 8, !tbaa !33
  %39 = getelementptr inbounds nuw %struct.SWFDecContext, ptr %38, i32 0, i32 3
  %40 = load ptr, ptr %39, align 8, !tbaa !37
  %41 = load ptr, ptr %10, align 8, !tbaa !108
  %42 = getelementptr inbounds nuw %struct.z_stream_s, ptr %41, i32 0, i32 0
  store ptr %40, ptr %42, align 8, !tbaa !111
  %43 = load i32, ptr %12, align 4, !tbaa !15
  %44 = load ptr, ptr %10, align 8, !tbaa !108
  %45 = getelementptr inbounds nuw %struct.z_stream_s, ptr %44, i32 0, i32 1
  store i32 %43, ptr %45, align 8, !tbaa !110
  store i32 0, ptr %13, align 4
  br label %46

46:                                               ; preds = %37, %35
  call void @llvm.lifetime.end.p0(i64 4, ptr %12) #10
  %47 = load i32, ptr %13, align 4
  switch i32 %47, label %79 [
    i32 0, label %48
  ]

48:                                               ; preds = %46
  br label %49

49:                                               ; preds = %48, %20
  %50 = load ptr, ptr %6, align 8, !tbaa !90
  %51 = load ptr, ptr %10, align 8, !tbaa !108
  %52 = getelementptr inbounds nuw %struct.z_stream_s, ptr %51, i32 0, i32 3
  store ptr %50, ptr %52, align 8, !tbaa !112
  %53 = load i32, ptr %7, align 4, !tbaa !15
  %54 = load ptr, ptr %10, align 8, !tbaa !108
  %55 = getelementptr inbounds nuw %struct.z_stream_s, ptr %54, i32 0, i32 4
  store i32 %53, ptr %55, align 8, !tbaa !113
  %56 = load ptr, ptr %10, align 8, !tbaa !108
  %57 = call i32 @inflate(ptr noundef %56, i32 noundef 0)
  store i32 %57, ptr %11, align 4, !tbaa !15
  %58 = load i32, ptr %11, align 4, !tbaa !15
  %59 = icmp eq i32 %58, 1
  br i1 %59, label %60, label %61

60:                                               ; preds = %49
  store i32 -541478725, ptr %4, align 4
  store i32 1, ptr %13, align 4
  br label %79

61:                                               ; preds = %49
  %62 = load i32, ptr %11, align 4, !tbaa !15
  %63 = icmp ne i32 %62, 0
  br i1 %63, label %64, label %65

64:                                               ; preds = %61
  store i32 -22, ptr %4, align 4
  store i32 1, ptr %13, align 4
  br label %79

65:                                               ; preds = %61
  %66 = load i32, ptr %7, align 4, !tbaa !15
  %67 = load ptr, ptr %10, align 8, !tbaa !108
  %68 = getelementptr inbounds nuw %struct.z_stream_s, ptr %67, i32 0, i32 4
  %69 = load i32, ptr %68, align 8, !tbaa !113
  %70 = sub i32 %66, %69
  %71 = icmp eq i32 %70, 0
  br i1 %71, label %72, label %73

72:                                               ; preds = %65
  br label %20

73:                                               ; preds = %65
  %74 = load i32, ptr %7, align 4, !tbaa !15
  %75 = load ptr, ptr %10, align 8, !tbaa !108
  %76 = getelementptr inbounds nuw %struct.z_stream_s, ptr %75, i32 0, i32 4
  %77 = load i32, ptr %76, align 8, !tbaa !113
  %78 = sub i32 %74, %77
  store i32 %78, ptr %4, align 4
  store i32 1, ptr %13, align 4
  br label %79

79:                                               ; preds = %73, %64, %60, %46
  call void @llvm.lifetime.end.p0(i64 4, ptr %11) #10
  call void @llvm.lifetime.end.p0(i64 8, ptr %10) #10
  call void @llvm.lifetime.end.p0(i64 8, ptr %9) #10
  call void @llvm.lifetime.end.p0(i64 8, ptr %8) #10
  %80 = load i32, ptr %4, align 4
  ret i32 %80
}