; Function Attrs: nounwind uwtable
define internal range(i32 1, 0) i32 @zlib_refill(ptr noundef readonly captures(none) %0, ptr noundef %1, i32 noundef %2) #1 {
  %4 = getelementptr inbounds nuw i8, ptr %0, i64 24
  %5 = load ptr, ptr %4, align 8, !tbaa !13
  %6 = getelementptr inbounds nuw i8, ptr %5, i64 32
  %7 = getelementptr inbounds nuw i8, ptr %5, i64 40
  %8 = getelementptr inbounds nuw i8, ptr %0, i64 32
  %9 = getelementptr inbounds nuw i8, ptr %5, i64 16
  %10 = getelementptr inbounds nuw i8, ptr %5, i64 56
  %11 = getelementptr inbounds nuw i8, ptr %5, i64 64
  br label %12

12:                                               ; preds = %22, %3
  %13 = load i32, ptr %7, align 8, !tbaa !93
  %.not = icmp eq i32 %13, 0
  br i1 %.not, label %14, label %20

14:                                               ; preds = %12
  %15 = load ptr, ptr %8, align 8, !tbaa !28
  %16 = load ptr, ptr %9, align 8, !tbaa !29
  %17 = tail call i32 @avio_read(ptr noundef %15, ptr noundef %16, i32 noundef 4096) #9
  %18 = icmp sgt i32 %17, -1
  br i1 %18, label %.thread, label %.loopexit

.thread:                                          ; preds = %14
  %19 = load ptr, ptr %9, align 8, !tbaa !29
  store ptr %19, ptr %6, align 8, !tbaa !94
  store i32 %17, ptr %7, align 8, !tbaa !93
  br label %20

20:                                               ; preds = %.thread, %12
  store ptr %1, ptr %10, align 8, !tbaa !95
  store i32 %2, ptr %11, align 8, !tbaa !96
  %21 = tail call i32 @inflate(ptr noundef nonnull %6, i32 noundef 0) #9
  switch i32 %21, label %.loopexit [
    i32 1, label %.loopexit.loopexit
    i32 0, label %22
  ]

22:                                               ; preds = %20
  %23 = load i32, ptr %11, align 8, !tbaa !96
  %24 = sub i32 %2, %23
  %25 = icmp eq i32 %24, 0
  br i1 %25, label %12, label %.loopexit

.loopexit.loopexit:                               ; preds = %20
  br label %.loopexit

.loopexit:                                        ; preds = %14, %22, %20, %.loopexit.loopexit
  %.3 = phi i32 [ -22, %20 ], [ %17, %14 ], [ %24, %22 ], [ -541478725, %.loopexit.loopexit ]
  ret i32 %.3
}